target datalayout = "e-m:e-p270:32:32-p271:32:32-p272:64:64-i64:64-i128:128-f80:128-n8:16:32:64-S128"
target triple = "x86_64-pc-linux-gnu"

; Function Attrs: nounwind uwtable
define internal void @flip_endian(ptr noundef %0, ptr noundef %1, i64 noundef %2) #0 {
  %4 = alloca ptr, align 8
  %5 = alloca ptr, align 8
  %6 = alloca i64, align 8
  %7 = alloca i64, align 8
  store ptr %0, ptr %4, align 8, !tbaa !25
  store ptr %1, ptr %5, align 8, !tbaa !25
  store i64 %2, ptr %6, align 8, !tbaa !17
  call void @llvm.lifetime.start.p0(i64 8, ptr %7) #7
  store i64 0, ptr %7, align 8, !tbaa !17
  br label %8

8:                                                ; preds = %23, %3
  %9 = load i64, ptr %7, align 8, !tbaa !17
  %10 = load i64, ptr %6, align 8, !tbaa !17
  %11 = icmp ult i64 %9, %10
  br i1 %11, label %12, label %26

12:                                               ; preds = %8
  %13 = load ptr, ptr %5, align 8, !tbaa !25
  %14 = load i64, ptr %6, align 8, !tbaa !17
  %15 = sub i64 %14, 1
  %16 = load i64, ptr %7, align 8, !tbaa !17
  %17 = sub i64 %15, %16
  %18 = getelementptr inbounds nuw i8, ptr %13, i64 %17
  %19 = load i8, ptr %18, align 1, !tbaa !43
  %20 = load ptr, ptr %4, align 8, !tbaa !25
  %21 = load i64, ptr %7, align 8, !tbaa !17
  %22 = getelementptr inbounds nuw i8, ptr %20, i64 %21
  store i8 %19, ptr %22, align 1, !tbaa !43
  br label %23

23:                                               ; preds = %12
  %24 = load i64, ptr %7, align 8, !tbaa !17
  %25 = add i64 %24, 1
  store i64 %25, ptr %7, align 8, !tbaa !17
  br label %8, !llvm.loop !44

26:                                               ; preds = %8
  call void @llvm.lifetime.end.p0(i64 8, ptr %7) #7
  ret void
}

; Function Attrs: nounwind uwtable
define internal void @felem_to_bin28(ptr noundef %0, ptr noundef %1) #0 {
  %3 = alloca ptr, align 8
  %4 = alloca ptr, align 8
  %5 = alloca i64, align 8
  store ptr %0, ptr %3, align 8, !tbaa !25
  store ptr %1, ptr %4, align 8, !tbaa !27
  call void @llvm.lifetime.start.p0(i64 8, ptr %5) #7
  store i64 0, ptr %5, align 8, !tbaa !17
  br label %6

6:                                                ; preds = %53, %2
  %7 = load i64, ptr %5, align 8, !tbaa !17
  %8 = icmp ult i64 %7, 7
  br i1 %8, label %9, label %56

9:                                                ; preds = %6
  %10 = load ptr, ptr %4, align 8, !tbaa !27
  %11 = getelementptr inbounds i64, ptr %10, i64 0
  %12 = load i64, ptr %11, align 8, !tbaa !17
  %13 = load i64, ptr %5, align 8, !tbaa !17
  %14 = mul i64 8, %13
  %15 = lshr i64 %12, %14
  %16 = trunc i64 %15 to i8
  %17 = load ptr, ptr %3, align 8, !tbaa !25
  %18 = load i64, ptr %5, align 8, !tbaa !17
  %19 = getelementptr inbounds nuw i8, ptr %17, i64 %18
  store i8 %16, ptr %19, align 1, !tbaa !43
  %20 = load ptr, ptr %4, align 8, !tbaa !27
  %21 = getelementptr inbounds i64, ptr %20, i64 1
  %22 = load i64, ptr %21, align 8, !tbaa !17
  %23 = load i64, ptr %5, align 8, !tbaa !17
  %24 = mul i64 8, %23
  %25 = lshr i64 %22, %24
  %26 = trunc i64 %25 to i8
  %27 = load ptr, ptr %3, align 8, !tbaa !25
  %28 = load i64, ptr %5, align 8, !tbaa !17
  %29 = add i64 %28, 7
  %30 = getelementptr inbounds nuw i8, ptr %27, i64 %29
  store i8 %26, ptr %30, align 1, !tbaa !43
  %31 = load ptr, ptr %4, align 8, !tbaa !27
  %32 = getelementptr inbounds i64, ptr %31, i64 2
  %33 = load i64, ptr %32, align 8, !tbaa !17
  %34 = load i64, ptr %5, align 8, !tbaa !17
  %35 = mul i64 8, %34
  %36 = lshr i64 %33, %35
  %37 = trunc i64 %36 to i8
  %38 = load ptr, ptr %3, align 8, !tbaa !25
  %39 = load i64, ptr %5, align 8, !tbaa !17
  %40 = add i64 %39, 14
  %41 = getelementptr inbounds nuw i8, ptr %38, i64 %40
  store i8 %37, ptr %41, align 1, !tbaa !43
  %42 = load ptr, ptr %4, align 8, !tbaa !27
  %43 = getelementptr inbounds i64, ptr %42, i64 3
  %44 = load i64, ptr %43, align 8, !tbaa !17
  %45 = load i64, ptr %5, align 8, !tbaa !17
  %46 = mul i64 8, %45
  %47 = lshr i64 %44, %46
  %48 = trunc i64 %47 to i8
  %49 = load ptr, ptr %3, align 8, !tbaa !25
  %50 = load i64, ptr %5, align 8, !tbaa !17
  %51 = add i64 %50, 21
  %52 = getelementptr inbounds nuw i8, ptr %49, i64 %51
  store i8 %48, ptr %52, align 1, !tbaa !43
  br label %53

53:                                               ; preds = %9
  %54 = load i64, ptr %5, align 8, !tbaa !17
  %55 = add i64 %54, 1
  store i64 %55, ptr %5, align 8, !tbaa !17
  br label %6, !llvm.loop !45

56:                                               ; preds = %6
  call void @llvm.lifetime.end.p0(i64 8, ptr %5) #7
  ret void
}

; Function Attrs: nounwind uwtable
define internal ptr @felem_to_BN(ptr noundef %0, ptr noundef %1) #0 {
  %3 = alloca ptr, align 8
  %4 = alloca ptr, align 8
  %5 = alloca [28 x i8], align 16
  %6 = alloca [28 x i8], align 16
  store ptr %0, ptr %3, align 8, !tbaa !13
  store ptr %1, ptr %4, align 8, !tbaa !27
  call void @llvm.lifetime.start.p0(i64 28, ptr %5) #7
  call void @llvm.lifetime.start.p0(i64 28, ptr %6) #7
  %7 = getelementptr inbounds [28 x i8], ptr %5, i64 0, i64 0
  %8 = load ptr, ptr %4, align 8, !tbaa !27
  call void @felem_to_bin28(ptr noundef %7, ptr noundef %8)
  %9 = getelementptr inbounds [28 x i8], ptr %6, i64 0, i64 0
  %10 = getelementptr inbounds [28 x i8], ptr %5, i64 0, i64 0
  call void @flip_endian(ptr noundef %9, ptr noundef %10, i64 noundef 28)
  %11 = getelementptr inbounds [28 x i8], ptr %6, i64 0, i64 0
  %12 = load ptr, ptr %3, align 8, !tbaa !13
  %13 = call ptr @BN_bin2bn(ptr noundef %11, i64 noundef 28, ptr noundef %12)
  call void @llvm.lifetime.end.p0(i64 28, ptr %6) #7
  call void @llvm.lifetime.end.p0(i64 28, ptr %5) #7
  ret ptr %13
}