; Function Attrs: nounwind uwtable
define internal fastcc ptr @felem_to_BN(ptr noundef nonnull %0, ptr noundef nonnull readonly captures(none) %1) unnamed_addr #2 {
  %3 = alloca [28 x i8], align 16
  %4 = alloca [28 x i8], align 16
  call void @llvm.lifetime.start.p0(i64 28, ptr nonnull %3) #10
  call void @llvm.lifetime.start.p0(i64 28, ptr nonnull %4) #10
  %5 = getelementptr inbounds nuw i8, ptr %1, i64 8
  %6 = getelementptr inbounds nuw i8, ptr %1, i64 16
  %7 = getelementptr inbounds nuw i8, ptr %1, i64 24
  %8 = load i64, ptr %1, align 8, !tbaa !11
  %9 = load i64, ptr %5, align 8, !tbaa !11
  %10 = load i64, ptr %6, align 8, !tbaa !11
  %11 = load i64, ptr %7, align 8, !tbaa !11
  br label %12

12:                                               ; preds = %12, %2
  %.017.i = phi i64 [ 0, %2 ], [ %26, %12 ]
  %13 = shl nuw nsw i64 %.017.i, 3
  %14 = lshr i64 %8, %13
  %15 = trunc i64 %14 to i8
  %16 = getelementptr inbounds nuw i8, ptr %3, i64 %.017.i
  store i8 %15, ptr %16, align 1, !tbaa !6
  %17 = lshr i64 %9, %13
  %18 = trunc i64 %17 to i8
  %19 = getelementptr inbounds nuw i8, ptr %16, i64 7
  store i8 %18, ptr %19, align 1, !tbaa !6
  %20 = lshr i64 %10, %13
  %21 = trunc i64 %20 to i8
  %22 = getelementptr inbounds nuw i8, ptr %16, i64 14
  store i8 %21, ptr %22, align 1, !tbaa !6
  %23 = lshr i64 %11, %13
  %24 = trunc i64 %23 to i8
  %25 = getelementptr inbounds nuw i8, ptr %16, i64 21
  store i8 %24, ptr %25, align 1, !tbaa !6
  %26 = add nuw nsw i64 %.017.i, 1
  %exitcond.not.i = icmp eq i64 %26, 7
  br i1 %exitcond.not.i, label %felem_to_bin28.exit, label %12, !llvm.loop !20

felem_to_bin28.exit:                              ; preds = %12
  %27 = getelementptr inbounds nuw i8, ptr %3, i64 28
  br label %28

28:                                               ; preds = %28, %felem_to_bin28.exit
  %.08.i = phi i64 [ 0, %felem_to_bin28.exit ], [ %33, %28 ]
  %29 = xor i64 %.08.i, -1
  %30 = getelementptr i8, ptr %27, i64 %29
  %31 = load i8, ptr %30, align 1, !tbaa !6
  %32 = getelementptr inbounds nuw i8, ptr %4, i64 %.08.i
  store i8 %31, ptr %32, align 1, !tbaa !6
  %33 = add nuw nsw i64 %.08.i, 1
  %exitcond.not.i2 = icmp eq i64 %33, 28
  br i1 %exitcond.not.i2, label %flip_endian.exit, label %28, !llvm.loop !9

flip_endian.exit:                                 ; preds = %28
  %34 = call ptr @BN_bin2bn(ptr noundef nonnull %4, i64 noundef 28, ptr noundef nonnull %0) #10
  call void @llvm.lifetime.end.p0(i64 28, ptr nonnull %4) #10
  call void @llvm.lifetime.end.p0(i64 28, ptr nonnull %3) #10
  ret ptr %34
}